(lp0
ccopy_reg
_reconstructor
p1
(cpandas.core.frame
DataFrame
p2
c__builtin__
object
p3
Ntp4
Rp5
(dp6
S'_metadata'
p7
(lp8
sS'_typ'
p9
S'dataframe'
p10
sS'_data'
p11
g1
(cpandas.core.internals
BlockManager
p12
g3
Ntp13
Rp14
((lp15
cpandas.core.indexes.base
_new_Index
p16
(cpandas.core.indexes.range
RangeIndex
p17
(dp18
S'start'
p19
I0
sS'step'
p20
I1
sS'stop'
p21
I1
sS'name'
p22
Nstp23
Rp24
ag16
(cpandas.core.indexes.base
Index
p25
(dp26
S'data'
p27
cnumpy.core.multiarray
_reconstruct
p28
(cnumpy
ndarray
p29
(I0
tp30
S'b'
p31
tp32
Rp33
(I1
(I19
tp34
cnumpy
dtype
p35
(S'O8'
p36
I0
I1
tp37
Rp38
(I3
S'|'
p39
NNNI-1
I-1
I63
tp40
bI00
(lp41
S'Size.Area'
p42
aS'Size.MajorAxisLength'
p43
aS'Size.MinorAxisLength'
p44
aS'Size.Perimeter'
p45
aS'Shape.Circularity'
p46
aS'Shape.Eccentricity'
p47
aS'Shape.EquivalentDiameter'
p48
aS'Shape.Extent'
p49
aS'Shape.MinorMajorAxisRatio'
p50
aS'Shape.Solidity'
p51
aS'Case'
p52
aS'ID'
p53
aVCase
p54
aVGrade
p55
aVAge (years at diagnosis)
p56
aVGender
p57
aVSurvival (months)
p58
aVVital status (1=dead)
p59
aVMGMT promoter status
p60
atp61
bsg22
Nstp62
Rp63
a(lp64
g28
(g29
(I0
tp65
g31
tp66
Rp67
(I1
(I1
I19
tp68
g38
I00
(lp69
F45.911764705882355
aF14.199751343877194
aF6.999638565990403
aF26.455073834242164
aF1.251700900260902
aF0.8428610390743907
aF6.588293682296601
aF0.39074496154642535
aF0.49061013778470897
aF0.59435354177852
aS'TCGA-14-0865'
p70
aS'TCGA-14-08652'
p71
aVTCGA-14-0865
p72
acnumpy.core.multiarray
scalar
p73
(g35
(S'f8'
p74
I0
I1
tp75
Rp76
(I3
S'<'
p77
NNNI-1
I-1
I0
tp78
bS'\x00\x00\x00\x00\x00\x00\x10@'
p79
tp80
Rp81
ag73
(g76
S'\x00\x00\x00\x00\x00\xc0P@'
p82
tp83
Rp84
ag73
(g35
(S'i8'
p85
I0
I1
tp86
Rp87
(I3
S'<'
p88
NNNI-1
I-1
I0
tp89
bS'\x01\x00\x00\x00\x00\x00\x00\x00'
p90
tp91
Rp92
ag73
(g76
S'\xb0\xb3|\xb8?~0@'
p93
tp94
Rp95
ag73
(g76
S'\x00\x00\x00\x00\x00\x00\xf0?'
p96
tp97
Rp98
ag73
(g87
S'\x01\x00\x00\x00\x00\x00\x00\x00'
p99
tp100
Rp101
atp102
ba(lp103
g16
(g17
(dp104
g19
I0
sg20
I1
sg21
I1
sg22
Nstp105
Rp106
a(dp107
S'0.14.1'
p108
(dp109
S'axes'
p110
g15
sS'blocks'
p111
(lp112
(dp113
S'mgr_locs'
p114
c__builtin__
slice
p115
(I0
I1
I1
tp116
Rp117
sS'values'
p118
g67
sasstp119
bsbag1
(g2
g3
Ntp120
Rp121
(dp122
g7
g8
sg9
g10
sg11
g1
(g12
g3
Ntp123
Rp124
((lp125
g16
(g17
(dp126
g19
I0
sg20
I1
sg21
I1
sg22
Nstp127
Rp128
ag16
(g25
(dp129
g27
g28
(g29
(I0
tp130
g31
tp131
Rp132
(I1
(I19
tp133
g38
I00
(lp134
g42
ag43
ag44
ag45
ag46
ag47
ag48
ag49
ag50
ag51
ag52
ag53
ag54
ag55
ag56
ag57
ag58
ag59
ag60
atp135
bsg22
Nstp136
Rp137
a(lp138
g28
(g29
(I0
tp139
g31
tp140
Rp141
(I1
(I1
I19
tp142
g38
I00
(lp143
F79.75
aF16.098378548712464
aF8.273165016743642
aF31.52969875665449
aF16.20950133874587
aF0.8115989781977437
aF8.107434741069525
aF0.4256080542264753
aF0.5107549600150663
aF0.5992729497841879
aS'TCGA-02-0317'
p144
aS'TCGA-02-03178'
p145
aVTCGA-02-0317
p146
ag73
(g76
S'\x00\x00\x00\x00\x00\x00\x10@'
p147
tp148
Rp149
ag73
(g76
S'\x00\x00\x00\x00\x00\x00D@'
p150
tp151
Rp152
ag73
(g87
S'\x01\x00\x00\x00\x00\x00\x00\x00'
p153
tp154
Rp155
ag73
(g76
S'\xc5\xee\xf1\xf8\xacq(@'
p156
tp157
Rp158
ag73
(g76
S'\x00\x00\x00\x00\x00\x00\xf0?'
p159
tp160
Rp161
ag73
(g87
S'\x00\x00\x00\x00\x00\x00\x00\x00'
p162
tp163
Rp164
atp165
ba(lp166
g16
(g17
(dp167
g19
I0
sg20
I1
sg21
I1
sg22
Nstp168
Rp169
a(dp170
g108
(dp171
g110
g125
sg111
(lp172
(dp173
g114
g115
(I0
I1
I1
tp174
Rp175
sg118
g141
sasstp176
bsbag1
(g2
g3
Ntp177
Rp178
(dp179
g7
g8
sg9
g10
sg11
g1
(g12
g3
Ntp180
Rp181
((lp182
g16
(g17
(dp183
g19
I0
sg20
I1
sg21
I1
sg22
Nstp184
Rp185
ag16
(g25
(dp186
g27
g28
(g29
(I0
tp187
g31
tp188
Rp189
(I1
(I19
tp190
g38
I00
(lp191
g42
ag43
ag44
ag45
ag46
ag47
ag48
ag49
ag50
ag51
ag52
ag53
ag54
ag55
ag56
ag57
ag58
ag59
ag60
atp192
bsg22
Nstp193
Rp194
a(lp195
g28
(g29
(I0
tp196
g31
tp197
Rp198
(I1
(I1
I19
tp199
g38
I00
(lp200
F99.48689138576779
aF19.598922656433675
aF9.256975811967772
aF37.72299725340177
aF1.9871539312148934
aF0.8382279416848815
aF8.296291722421627
aF0.32038492988850764
aF0.4685824548009267
aF0.48880537967200055
aS'TCGA-06-5856'
p201
aS'TCGA-06-58561'
p202
aVTCGA-06-5856
p203
ag73
(g76
S'\x00\x00\x00\x00\x00\x00\x10@'
p204
tp205
Rp206
ag73
(g76
S'\x00\x00\x00\x00\x00\x00M@'
p207
tp208
Rp209
ag73
(g87
S'\x01\x00\x00\x00\x00\x00\x00\x00'
p210
tp211
Rp212
ag73
(g76
S'\xf2,\x9c\xff\xb2\xf6\r@'
p213
tp214
Rp215
ag73
(g76
S'\x00\x00\x00\x00\x00\x00\xf0?'
p216
tp217
Rp218
ag73
(g87
S'\x00\x00\x00\x00\x00\x00\x00\x00'
p219
tp220
Rp221
atp222
ba(lp223
g16
(g17
(dp224
g19
I0
sg20
I1
sg21
I1
sg22
Nstp225
Rp226
a(dp227
g108
(dp228
g110
g182
sg111
(lp229
(dp230
g114
g115
(I0
I1
I1
tp231
Rp232
sg118
g198
sasstp233
bsbag1
(g2
g3
Ntp234
Rp235
(dp236
g7
g8
sg9
g10
sg11
g1
(g12
g3
Ntp237
Rp238
((lp239
g16
(g17
(dp240
g19
I0
sg20
I1
sg21
I1
sg22
Nstp241
Rp242
ag16
(g25
(dp243
g27
g28
(g29
(I0
tp244
g31
tp245
Rp246
(I1
(I19
tp247
g38
I00
(lp248
g42
ag43
ag44
ag45
ag46
ag47
ag48
ag49
ag50
ag51
ag52
ag53
ag54
ag55
ag56
ag57
ag58
ag59
ag60
atp249
bsg22
Nstp250
Rp251
a(lp252
g28
(g29
(I0
tp253
g31
tp254
Rp255
(I1
(I1
I19
tp256
g38
I00
(lp257
F1805.5903614457832
aF60.0931652270176
aF36.670636466878115
aF206.59655483222312
aF0.5616818564235735
aF0.7312305204740452
aF43.94596755822933
aF0.5712249547538735
aF0.6466609875876271
aF0.8223831947361031
aS'TCGA-02-0006'
p258
aS'TCGA-02-00060'
p259
aVTCGA-02-0006
p260
ag73
(g76
S'\x00\x00\x00\x00\x00\x00\x10@'
p261
tp262
Rp263
ag73
(g76
S'\x00\x00\x00\x00\x00\x00L@'
p264
tp265
Rp266
ag73
(g87
S'\x00\x00\x00\x00\x00\x00\x00\x00'
p267
tp268
Rp269
ag73
(g76
S'\x14s\xb5\xbaAU2@'
p270
tp271
Rp272
ag73
(g76
S'\x00\x00\x00\x00\x00\x00\xf0?'
p273
tp274
Rp275
ag73
(g87
S'\x00\x00\x00\x00\x00\x00\x00\x00'
p276
tp277
Rp278
atp279
ba(lp280
g16
(g17
(dp281
g19
I0
sg20
I1
sg21
I1
sg22
Nstp282
Rp283
a(dp284
g108
(dp285
g110
g239
sg111
(lp286
(dp287
g114
g115
(I0
I1
I1
tp288
Rp289
sg118
g255
sasstp290
bsbag1
(g2
g3
Ntp291
Rp292
(dp293
g7
g8
sg9
g10
sg11
g1
(g12
g3
Ntp294
Rp295
((lp296
g16
(g17
(dp297
g19
I0
sg20
I1
sg21
I1
sg22
Nstp298
Rp299
ag16
(g25
(dp300
g27
g28
(g29
(I0
tp301
g31
tp302
Rp303
(I1
(I19
tp304
g38
I00
(lp305
g42
ag43
ag44
ag45
ag46
ag47
ag48
ag49
ag50
ag51
ag52
ag53
ag54
ag55
ag56
ag57
ag58
ag59
ag60
atp306
bsg22
Nstp307
Rp308
a(lp309
g28
(g29
(I0
tp310
g31
tp311
Rp312
(I1
(I1
I19
tp313
g38
I00
(lp314
F61.04275862068965
aF16.40565277308535
aF7.826694482234786
aF34.0619758493395
aF1.2141595927699338
aF0.8210047306955394
aF8.114225029009305
aF0.4139859451653716
aF0.5152746187659286
aF0.6056601192449346
aS'TCGA-06-0148'
p315
aS'TCGA-06-01480'
p316
aVTCGA-06-0148
p317
ag73
(g76
S'\x00\x00\x00\x00\x00\x00\x10@'
p318
tp319
Rp320
ag73
(g76
S'\x00\x00\x00\x00\x00\x00S@'
p321
tp322
Rp323
ag73
(g87
S'\x01\x00\x00\x00\x00\x00\x00\x00'
p324
tp325
Rp326
ag73
(g76
S'x2\xee\xbcC,$@'
p327
tp328
Rp329
ag73
(g76
S'\x00\x00\x00\x00\x00\x00\xf0?'
p330
tp331
Rp332
ag73
(g87
S'\x00\x00\x00\x00\x00\x00\x00\x00'
p333
tp334
Rp335
atp336
ba(lp337
g16
(g17
(dp338
g19
I0
sg20
I1
sg21
I1
sg22
Nstp339
Rp340
a(dp341
g108
(dp342
g110
g296
sg111
(lp343
(dp344
g114
g115
(I0
I1
I1
tp345
Rp346
sg118
g312
sasstp347
bsbag1
(g2
g3
Ntp348
Rp349
(dp350
g7
g8
sg9
g10
sg11
g1
(g12
g3
Ntp351
Rp352
((lp353
g16
(g17
(dp354
g19
I0
sg20
I1
sg21
I1
sg22
Nstp355
Rp356
ag16
(g25
(dp357
g27
g28
(g29
(I0
tp358
g31
tp359
Rp360
(I1
(I19
tp361
g38
I00
(lp362
g42
ag43
ag44
ag45
ag46
ag47
ag48
ag49
ag50
ag51
ag52
ag53
ag54
ag55
ag56
ag57
ag58
ag59
ag60
atp363
bsg22
Nstp364
Rp365
a(lp366
g28
(g29
(I0
tp367
g31
tp368
Rp369
(I1
(I1
I19
tp370
g38
I00
(lp371
F6356.018867924528
aF126.25369844980486
aF52.96896477435773
aF487.793640971553
aF0.400654652374548
aF0.8308472384129443
aF71.85047517756823
aF0.43865426890081827
aF0.4935104142735411
aF0.7300691324166482
aS'TCGA-06-0171'
p372
aS'TCGA-06-01715'
p373
aVTCGA-06-0171
p374
ag73
(g76
S'\x00\x00\x00\x00\x00\x00\x10@'
p375
tp376
Rp377
ag73
(g76
S'\x00\x00\x00\x00\x00@P@'
p378
tp379
Rp380
ag73
(g87
S'\x01\x00\x00\x00\x00\x00\x00\x00'
p381
tp382
Rp383
ag73
(g76
S'T\xa7\xa8\x9f\xdc7*@'
p384
tp385
Rp386
ag73
(g76
S'\x00\x00\x00\x00\x00\x00\xf0?'
p387
tp388
Rp389
ag73
(g87
S'\x00\x00\x00\x00\x00\x00\x00\x00'
p390
tp391
Rp392
atp393
ba(lp394
g16
(g17
(dp395
g19
I0
sg20
I1
sg21
I1
sg22
Nstp396
Rp397
a(dp398
g108
(dp399
g110
g353
sg111
(lp400
(dp401
g114
g115
(I0
I1
I1
tp402
Rp403
sg118
g369
sasstp404
bsbag1
(g2
g3
Ntp405
Rp406
(dp407
g7
g8
sg9
g10
sg11
g1
(g12
g3
Ntp408
Rp409
((lp410
g16
(g17
(dp411
g19
I0
sg20
I1
sg21
I1
sg22
Nstp412
Rp413
ag16
(g25
(dp414
g27
g28
(g29
(I0
tp415
g31
tp416
Rp417
(I1
(I19
tp418
g38
I00
(lp419
g42
ag43
ag44
ag45
ag46
ag47
ag48
ag49
ag50
ag51
ag52
ag53
ag54
ag55
ag56
ag57
ag58
ag59
ag60
atp420
bsg22
Nstp421
Rp422
a(lp423
g28
(g29
(I0
tp424
g31
tp425
Rp426
(I1
(I1
I19
tp427
g38
I00
(lp428
F118.39172749391727
aF21.64654100864771
aF11.486434911839902
aF58.15552892823205
aF0.925095419319421
aF0.8103737185689489
aF10.99442159802629
aF0.35180672190891327
aF0.538780185715629
aF0.5348100516240093
aS'TCGA-14-3477'
p429
aS'TCGA-14-34771'
p430
aVTCGA-14-3477
p431
ag73
(g76
S'\x00\x00\x00\x00\x00\x00\x10@'
p432
tp433
Rp434
ag73
(g76
S'\x00\x00\x00\x00\x00\x00C@'
p435
tp436
Rp437
ag73
(g87
S'\x00\x00\x00\x00\x00\x00\x00\x00'
p438
tp439
Rp440
ag73
(g76
S'IH\xa4m\xfc9\x0e@'
p441
tp442
Rp443
ag73
(g76
S'\x00\x00\x00\x00\x00\x00\x00\x00'
p444
tp445
Rp446
ag73
(g87
S'\x00\x00\x00\x00\x00\x00\x00\x00'
p447
tp448
Rp449
atp450
ba(lp451
g16
(g17
(dp452
g19
I0
sg20
I1
sg21
I1
sg22
Nstp453
Rp454
a(dp455
g108
(dp456
g110
g410
sg111
(lp457
(dp458
g114
g115
(I0
I1
I1
tp459
Rp460
sg118
g426
sasstp461
bsba.